target datalayout = "e-m:e-p270:32:32-p271:32:32-p272:64:64-i64:64-i128:128-f80:128-n8:16:32:64-S128"
target triple = "x86_64-pc-linux-gnu"

%"class.llvm::MCRegisterClass" = type { ptr, ptr, i32, i16, i16, i16, i16, i8, i8, i8 }
%"class.llvm::TargetRegisterClass" = type { ptr, ptr, ptr, %"struct.llvm::LaneBitmask", i8, i8, i8, i8, i8, ptr, ptr }
%"struct.llvm::LaneBitmask" = type { i64 }

; Function Attrs: mustprogress nounwind uwtable
define linkonce_odr hidden noundef i32 @_ZNK4llvm15MCRegisterClass5getIDEv(ptr noundef nonnull align 8 dereferenceable(32) %0) #0 comdat align 2 {
  %2 = alloca ptr, align 8
  store ptr %0, ptr %2, align 8
  %3 = load ptr, ptr %2, align 8
  %4 = getelementptr inbounds nuw %"class.llvm::MCRegisterClass", ptr %3, i32 0, i32 5
  %5 = load i16, ptr %4, align 8
  %6 = zext i16 %5 to i32
  ret i32 %6
}

; Function Attrs: mustprogress nounwind uwtable
define linkonce_odr hidden noundef i32 @_ZNK4llvm19TargetRegisterClass5getIDEv(ptr noundef nonnull align 8 dereferenceable(56) %0) #0 comdat align 2 {
  %2 = alloca ptr, align 8
  store ptr %0, ptr %2, align 8
  %3 = load ptr, ptr %2, align 8
  %4 = getelementptr inbounds nuw %"class.llvm::TargetRegisterClass", ptr %3, i32 0, i32 0
  %5 = load ptr, ptr %4, align 8
  %6 = call noundef i32 @_ZNK4llvm15MCRegisterClass5getIDEv(ptr noundef nonnull align 8 dereferenceable(32) %5)
  ret i32 %6
}

; Function Attrs: mustprogress nounwind uwtable
define linkonce_odr hidden noundef zeroext i1 @_ZNK4llvm19TargetRegisterClass13hasSubClassEqEPKS0_(ptr noundef nonnull align 8 dereferenceable(56) %0, ptr noundef %1) #0 comdat align 2 {
  %3 = alloca ptr, align 8
  %4 = alloca ptr, align 8
  %5 = alloca i32, align 4
  store ptr %0, ptr %3, align 8
  store ptr %1, ptr %4, align 8
  %6 = load ptr, ptr %3, align 8
  %7 = load ptr, ptr %4, align 8
  %8 = call noundef i32 @_ZNK4llvm19TargetRegisterClass5getIDEv(ptr noundef nonnull align 8 dereferenceable(56) %7)
  store i32 %8, ptr %5, align 4
  %9 = getelementptr inbounds nuw %"class.llvm::TargetRegisterClass", ptr %6, i32 0, i32 1
  %10 = load ptr, ptr %9, align 8
  %11 = load i32, ptr %5, align 4
  %12 = udiv i32 %11, 32
  %13 = zext i32 %12 to i64
  %14 = getelementptr inbounds i32, ptr %10, i64 %13
  %15 = load i32, ptr %14, align 4
  %16 = load i32, ptr %5, align 4
  %17 = urem i32 %16, 32
  %18 = lshr i32 %15, %17
  %19 = and i32 %18, 1
  %20 = icmp ne i32 %19, 0
  ret i1 %20
}

; Function Attrs: mustprogress nounwind uwtable
define dso_local noundef zeroext i1 @_ZNK4llvm18X86GenRegisterInfo29isGeneralPurposeRegisterClassEPKNS_19TargetRegisterClassE(ptr noundef nonnull align 8 dereferenceable(308) %0, ptr noundef %1) unnamed_addr #0 align 2 {
  %3 = alloca ptr, align 8
  %4 = alloca ptr, align 8
  store ptr %0, ptr %3, align 8
  store ptr %1, ptr %4, align 8
  %5 = load ptr, ptr %4, align 8
  %6 = call noundef zeroext i1 @_ZNK4llvm19TargetRegisterClass13hasSubClassEqEPKS0_(ptr noundef nonnull align 8 dereferenceable(56) @_ZN4llvm3X8612GR64RegClassE, ptr noundef %5)
  br i1 %6, label %17, label %7

7:                                                ; preds = %2
  %8 = load ptr, ptr %4, align 8
  %9 = call noundef zeroext i1 @_ZNK4llvm19TargetRegisterClass13hasSubClassEqEPKS0_(ptr noundef nonnull align 8 dereferenceable(56) @_ZN4llvm3X8612GR32RegClassE, ptr noundef %8)
  br i1 %9, label %17, label %10

10:                                               ; preds = %7
  %11 = load ptr, ptr %4, align 8
  %12 = call noundef zeroext i1 @_ZNK4llvm19TargetRegisterClass13hasSubClassEqEPKS0_(ptr noundef nonnull align 8 dereferenceable(56) @_ZN4llvm3X8612GR16RegClassE, ptr noundef %11)
  br i1 %12, label %17, label %13

13:                                               ; preds = %10
  %14 = load ptr, ptr %4, align 8
  %15 = call noundef zeroext i1 @_ZNK4llvm19TargetRegisterClass13hasSubClassEqEPKS0_(ptr noundef nonnull align 8 dereferenceable(56) @_ZN4llvm3X8611GR8RegClassE, ptr noundef %14)
  br i1 %15, label %17, label %16

16:                                               ; preds = %13
  br label %17

17:                                               ; preds = %16, %13, %10, %7, %2
  %18 = phi i1 [ true, %13 ], [ true, %10 ], [ true, %7 ], [ true, %2 ], [ false, %16 ]
  ret i1 %18
}