; Function Attrs: mustprogress nofree norecurse nosync nounwind willreturn memory(read, inaccessiblemem: none) uwtable
define dso_local noundef zeroext i1 @_ZNK4llvm18X86GenRegisterInfo29isGeneralPurposeRegisterClassEPKNS_19TargetRegisterClassE(ptr nonnull readnone align 8 captures(none) %0, ptr noundef readonly captures(none) %1) unnamed_addr #0 align 2 {
  %3 = load ptr, ptr %1, align 8
  %4 = getelementptr inbounds nuw i8, ptr %3, i64 24
  %5 = load i16, ptr %4, align 8
  %6 = zext i16 %5 to i32
  %7 = lshr i32 %6, 5
  %8 = zext nneg i32 %7 to i64
  %9 = getelementptr inbounds nuw i32, ptr @_ZN4llvmL16GR64SubClassMaskE, i64 %8
  %10 = load i32, ptr %9, align 4
  %11 = and i32 %6, 31
  %12 = shl nuw i32 1, %11
  %13 = and i32 %12, %10
  %.not = icmp eq i32 %13, 0
  br i1 %.not, label %14, label %27

14:                                               ; preds = %2
  %15 = getelementptr inbounds nuw i32, ptr @_ZN4llvmL16GR32SubClassMaskE, i64 %8
  %16 = load i32, ptr %15, align 4
  %17 = and i32 %16, %12
  %.not4 = icmp eq i32 %17, 0
  br i1 %.not4, label %18, label %27

18:                                               ; preds = %14
  %19 = getelementptr inbounds nuw i32, ptr @_ZN4llvmL16GR16SubClassMaskE, i64 %8
  %20 = load i32, ptr %19, align 4
  %21 = and i32 %20, %12
  %.not5 = icmp eq i32 %21, 0
  br i1 %.not5, label %22, label %27

22:                                               ; preds = %18
  %23 = getelementptr inbounds nuw i32, ptr @_ZN4llvmL15GR8SubClassMaskE, i64 %8
  %24 = load i32, ptr %23, align 4
  %25 = and i32 %24, %12
  %26 = icmp ne i32 %25, 0
  br label %27

27:                                               ; preds = %22, %18, %14, %2
  %28 = phi i1 [ true, %18 ], [ true, %14 ], [ true, %2 ], [ %26, %22 ]
  ret i1 %28
}